(dp1
S'permiso'
p2
(dp3
S'length'
p4
I256
sS'unique'
p5
I00
sS'sortable'
p6
I1
sS'sql'
p7
S'VARCHAR(256) NOT NULL'
p8
sS'notnull'
p9
I01
sS'type'
p10
S'string'
p11
ssS'id_tipo'
p12
(dp13
g4
I512
sg5
I00
sg6
I2
sg7
S'VARCHAR(512), CONSTRAINT  "FK_PERMISOS_TIPO_ACT_id_tipo__constraint" FOREIGN KEY (id_tipo) REFERENCES TIPO_ACTIVIDAD (id_tipo) ON DELETE CASCADE'
p14
sg9
I01
sg10
S'reference TIPO_ACTIVIDAD.id_tipo'
p15
ss.