(dp1
S'id_campo_cat'
p2
(dp3
S'length'
p4
I512
sS'unique'
p5
I00
sS'sortable'
p6
I1
sS'sql'
p7
S'VARCHAR(512) NOT NULL'
p8
sS'notnull'
p9
I01
sS'type'
p10
S'string'
p11
ssS'eliminar'
p12
(dp13
g4
I512
sg5
I00
sg6
I4
sg7
S'CHAR(1)'
p14
sg9
I00
sg10
S'boolean'
p15
ssS'nombre'
p16
(dp17
g4
I64
sg5
I00
sg6
I3
sg7
S'VARCHAR(64)'
p18
sg9
I00
sg10
g11
ssS'tipo_cat'
p19
(dp20
g4
I256
sg5
I00
sg6
I2
sg7
S'VARCHAR(256)'
p21
sg9
I00
sg10
g11
ss.