(dp1
S'output'
p2
S"<type 'exceptions.TypeError'> string indices must be integers, not str"
p3
sS'layer'
p4
S'/home/edward/web2py/applications/SiraDex/views/tipo_actividad/ver_tipo_actividad.html'
p5
sS'code'
p6
S'#extend \'SIRADEX_tipos_Actividad_layout.html\'\nresponse.write(\'\\n\', escape=False)\nresponse.write(\'<html>\\n\\t<head>\\n\\t\\t<meta charset = "UTF-8">\\n\\t\\t\', escape=False)\nresponse.write(\'<script type="text/javascript"><!--\\n    // These variables are used by the web2py_ajax_init function in web2py_ajax.js (which is loaded below).\\n    var w2p_ajax_confirm_message = "\', escape=False)\nresponse.write(T(\'Are you sure you want to delete this object?\'))\nresponse.write(\'";\\n    var w2p_ajax_disable_with_message = "\', escape=False)\nresponse.write(T(\'Working...\'))\nresponse.write(\'";\\n    var w2p_ajax_date_format = "\', escape=False)\nresponse.write(T(\'%Y-%m-%d\'))\nresponse.write(\'";\\n    var w2p_ajax_datetime_format = "\', escape=False)\nresponse.write(T(\'%Y-%m-%d %H:%M:%S\'))\nresponse.write(\'";\\n    var ajax_error_500 = \\\'\', escape=False)\nresponse.write(T.M(\'An error occured, please [[reload %s]] the page\') % URL(args=request.args, vars=request.get_vars))\nresponse.write("\'\\n    //--></script>\\n", escape=False)\nresponse.files.insert(0,URL(\'static\',\'js/jquery.js\'))\nresponse.files.insert(1,URL(\'static\',\'css/calendar.css\'))\nresponse.files.insert(2,URL(\'static\',\'js/calendar.js\'))\nresponse.files.insert(3,URL(\'static\',\'js/web2py.js\'))\nresponse.include_meta()\nresponse.include_files()\nresponse.write(\'\\n\', escape=False)\nresponse.write(\'\\n\\t\\t\', escape=False)\nresponse.files.append(URL(\'static\',\'css/layoutStyle.css\'))\nresponse.write(\'\\n\\t\\t<!-- Hago link con bootstrap, css del layout y archivo JavaScript de Web2PY -->\\n        <link rel="stylesheet" href="https://maxcdn.bootstrapcdn.com/bootstrap/3.3.6/css/bootstrap.min.css" integrity="sha384-1q8mTJOASx8j1Au+a5WDVnPi2lkFfwwEAa8hDDdjZlpLegxhjVME1fgjWPGmkzs7" crossorigin="anonymous">\\n        <link href="\', escape=False)\nresponse.write(URL(\'static\', \'css/layoutStyle.css\'))\nresponse.write(\'" rel="stylesheet" type="text/css" />\\n        <link href="\', escape=False)\nresponse.write(URL(\'static\', \'js/web2py.js\'))\nresponse.write(\'" />\\n        <link rel="shortcut icon" href="\', escape=False)\nresponse.write(URL(\'static\',\'iconos/favicon.ico\'))\nresponse.write(\'" type="image/x-icon">\\n        <!-- Selecciono el template (colores) de la pagina -->\\n        \', escape=False)\nif session.template == 1:\n    response.write(\'\\n            <link href="\', escape=False)\n    response.write(URL(\'static\', \'css/templateAzulClaro.css\'))\n    response.write(\'" rel="stylesheet" type="text/css" />\\n        \', escape=False)\nelif session.template == 2:\n    response.write(\'\\n            <link href="\', escape=False)\n    response.write(URL(\'static\', \'css/templateAzulOscuro.css\'))\n    response.write(\'" rel="stylesheet" type="text/css" />\\n        \', escape=False)\nelif session.template == 3:\n    response.write(\'\\n            <link href="\', escape=False)\n    response.write(URL(\'static\', \'css/templateMarron.css\'))\n    response.write(\'" rel="stylesheet" type="text/css" />\\n        \', escape=False)\nelif session.template == 4:\n    response.write(\'\\n            <link href="\', escape=False)\n    response.write(URL(\'static\', \'css/templateVerde.css\'))\n    response.write(\'" rel="stylesheet" type="text/css" />\\n        \', escape=False)\nelse:\n    response.write(\'\\n            <link href="\', escape=False)\n    response.write(URL(\'static\', \'css/templateAzulClaro.css\'))\n    response.write(\'" rel="stylesheet" type="text/css" />\\n        \', escape=False)\n    pass\nresponse.write(\'\\n\\t\\t<title> SIRADEX </title>\\n\\t</head>\\n\\n\\t<body>\\n\\t\\t<header>\\n\\t\\t\\t<!-- Banner de SIRADEX -->\\n\\t\\t\\t<div id = "logo">\\n\\t\\t\\t\\t\', escape=False)\nresponse.write(IMG(_src=URL(\'static\', \'images/banner.jpg\')))\nresponse.write(\'\\n\\t\\t\\t</div>\\n\\t\\t\\t<!-- Menu del headder -->\\n            <nav class="navbar navbar-default">\\n                <div class="container-fluid">\\n                    <ul class="nav navbar-nav navbar-right">\\n                    \', escape=False)\nif admin == 1:\n    response.write(\'\\n                        <li><a href="\', escape=False)\n    response.write(URL(c=\'default\', f=\'setVista.html\', args=[2]))\n    response.write(\'">Administrador</a></li>\\n                        <li><a href="\', escape=False)\n    response.write(URL(c=\'default\', f=\'setVista.html\', args=[1]))\n    response.write(\'">DEX</a></li>\\n                    \', escape=False)\nelif admin == 2:\n    response.write(\'\\n                        <li><a href="\', escape=False)\n    response.write(URL(c=\'default\', f=\'setVista.html\', args=[1]))\n    response.write(\'">DEX</a></li>\\n                    \', escape=False)\n    pass\nresponse.write(\'\\n                        <li><a href="\', escape=False)\nresponse.write(URL(c=\'default\', f=\'setVista.html\', args=[0]))\nresponse.write(\'">Actividades</a></li>\\n                        <li><a href="\', escape=False)\nresponse.write(URL(c=\'default\', f=\'vVerPerfil.html\'))\nresponse.write(\'">Ver Perfil</a></li>\\n                        <li><a href="\', escape=False)\nresponse.write(URL(c=\'busq_val\', f=\'busqueda.html\'))\nresponse.write(\'">B\\xc3\\xbasqueda</a></li>\\n                        <li><a href="#">Ayuda</a></li>\\n                        <li>\\n                            <a class =\\\'btn btn-xs\\\' href="\', escape=False)\nresponse.write(URL(c=\'default\', f=\'logout_cas.html\'))\nresponse.write(\'">\\n                                <span class="glyphicon glyphicon-user"></span>\\n                                Cerrar Sesi\\xc3\\xb3n\\n                            </a>\\n                        </li>\\n                </ul>\\n              </div>\\n            </nav>\\n\\t\\t</header>\\n\\t\\t<!-- Contenido principal de la pagina -->\\n\\t\\t<section class = "main">\\n\\t\\t\\t<!-- Menu de navegacion lateral -->\\n            <aside>\\n                <nav class="navbar navbar-default" role="navigation">\\n                    <ul class="nav nav-pills nav-stacked" id="nav">\\n                        <!-- Header -->\\n                        <li class="nav-item">\\n                            <h4> <strong> MEN\\xc3\\x9a </strong> </h4>\\n                        </li>\\n                        \', escape=False)\nif session.vista == 0:\n    response.write(\'\\n\\t\\t\\t    <!--Actividades -->\\n                            <li class="dropdown">\\n                                <a class="dropdown-toggle" data-toggle="dropdown" role="button" aria-haspopup="true" aria-expanded="false">Actividades</a>\\n                                <ul class="dropdown-menu">\\n                                    <li><a href="\', escape=False)\n    response.write(URL(c=\'actividad\', f=\'gestionar.html\'))\n    response.write(\'">Gestionar</a></li>\\n                                    <li><a href="\', escape=False)\n    response.write(URL(c=\'actividad\', f=\'tipos.html\'))\n    response.write(\'">Agregar</a></li>\\n                                </ul>\\n                            </li>\\n                        \', escape=False)\nelif session.vista == 1:\n    response.write(\'\\n                            <!-- B\\xc3\\xbasqueda Avanzadas -->\\n                            <li class="dropdown">\\n                                <a class="dropdown-toggle" data-toggle="dropdown" role="button" aria-haspopup="true" aria-expanded="false">B\\xc3\\xbasquedas Avanzadas</a>\\n                            </li>\\n\\t\\t\\t\\t\\t\\t\\t\\t\\t\\t\\t\\t\\t\\t<!-- Programas -->\\n                            <li class="dropdown">\\n                                <a class="dropdown-toggle" data-toggle="dropdown" role="button" aria-haspopup="true" aria-expanded="false">Programas</a>\\n                                <ul class="dropdown-menu">\\n                                    <li><a href="\', escape=False)\n    response.write(URL(c=\'programas\', f=\'agregar_programa.html\'))\n    response.write(\'">  Agregar</a></li>\\n                                    <li><a href="\', escape=False)\n    response.write(URL(c=\'programas\', f=\'gestionar_programas.html\'))\n    response.write(\'">Modificar</a></li>\\n                                </ul>\\n                            </li>\\n                            <!-- Tipos de actividad -->\\n                            <li class="dropdown">\\n                                <a class="dropdown-toggle" data-toggle="dropdown" role="button" aria-haspopup="true" aria-expanded="false">Tipos de Actividad</a>\\n                                <ul class="dropdown-menu">\\n                                    <li><a href="\', escape=False)\n    response.write(URL(c=\'tipo_actividad\', f=\'gestionar.html\'))\n    response.write(\'">Gestionar</a></li>\\n                                    <li><a href="\', escape=False)\n    response.write(URL(c=\'tipo_actividad\', f=\'agregar_tipo.html\'))\n    response.write(\'">Agregar</a></li>\\n                                    <li><a href="\', escape=False)\n    response.write(URL(c=\'tipo_actividad\', f=\'gestionar_archivo_historico.html\'))\n    response.write(\'">Archivo Hist\\xc3\\xb3rico</a></li>\\n                                </ul>\\n                            </li>\\n                            <!-- Validaciones -->\\n                            <li><a href="\', escape=False)\n    response.write(URL(c=\'busq_val\', f=\'gestionar_validacion.html\'))\n    response.write(\'"> Validaciones</a></li>\\n                        \', escape=False)\nelif session.vista == 2:\n    response.write(\'\\n                            <!-- Consultar Log -->\\n                            <li class="dropdown">\\n                                <a class="dropdown-toggle" data-toggle="dropdown" role="button" aria-haspopup="true" aria-expanded="false">Consultar Log</a>\\n                            </li>\\n                            <!-- Backup -->\\n                            <li class="dropdown">\\n                                <a class="dropdown-toggle" data-toggle="dropdown" role="button" aria-haspopup="true" aria-expanded="false">Backup</a>\\n                                <ul class="dropdown-menu">\\n                                    <li><a href="#">Gestionar</a></li>\\n                                    <li><a href="#">Crear</a></li>\\n                                    <li><a href="#">Restaurar</a></li>\\n                                </ul>\\n                            </li>\\n                            <!-- Cat\\xc3\\xa1logos -->\\n                            <!--<li class="nav-item">-->\\n                                <li class="dropdown">\\n                                <a class="dropdown-toggle" data-toggle="dropdown" role="button" aria-haspopup="true" aria-expanded="false">Cat\\xc3\\xa1logos</a>\\n                                <ul class="dropdown-menu">\\n                                    <li><a href="\', escape=False)\n    response.write(URL(c=\'catalogo\', f=\'vGestionarCatalogo.html\'))\n    response.write(\'">Gestionar</a></li>\\n                                    <li><a href="\', escape=False)\n    response.write(URL(c=\'catalogo\', f=\'vAgregarCatalogo.html\'))\n    response.write(\'">Agregar</a></li>\\n                                </ul>\\n                            </li>\\n                            <!-- Usuarios -->\\n                            <!--<li class="nav-item">-->\\n                                <li class="dropdown">\\n                                <a class="dropdown-toggle" data-toggle="dropdown" role="button" aria-haspopup="true" aria-expanded="false">Usuarios</a>\\n                                <ul class="dropdown-menu">\\n                                    <li><a href="\', escape=False)\n    response.write(URL(c=\'default\', f=\'vGestionarUsuarios.html\'))\n    response.write(\'">Gestionar</a></li>\\n                                    <li><a href="\', escape=False)\n    response.write(URL(c=\'default\', f=\'vAgregarUsuario.html\'))\n    response.write(\'">Agregar</a></li>\\n                                </ul>\\n                            </li>\\n                            <!-- Notificaciones -->\\n                            <!--<li class="nav-item">-->\\n                                <li class="dropdown">\\n                                <a class="dropdown-toggle" data-toggle="dropdown" role="button" aria-haspopup="true" aria-expanded="false">Notificaciones</a>\\n                                <ul class="dropdown-menu">\\n                                    <li><a href="#">Agregar</a></li>\\n                                    <li><a href="#">Modificar</a></li>\\n                                    <li><a href="#">Eliminar</a></li>\\n                                </ul>\\n                            </li>\\n                        \', escape=False)\nelse:\n    response.write(\'\\n                            <li class="dropdown">\\n                                <a class="dropdown-toggle" data-toggle="dropdown" role="button" aria-haspopup="true" aria-expanded="false">Actividades</a>\\n                                <ul class="dropdown-menu">\\n                                    <li><a href="#">Gestionar</a></li>\\n                                    <li><a href="#">Agregar</a></li>\\n                                    <li><a href="#">Modificar</a></li>\\n                                </ul>\\n                            </li>\\n                        \', escape=False)\n    pass\nresponse.write(\'\\n                    </ul>\\n                </nav>\\n                    <nav class="navbar navbar-default" role="navigation">\\n                    <ul class="nav nav-pills nav-stacked" id="nav">\\n                        <li class="nav-item">\\n                            <h4> <strong> COLORES </strong> </h4>\\n                        </li>\\n                        <li>\\n                            <form action="\', escape=False)\nresponse.write(URL(c=\'default\', f=\'cambiar_colores\'))\nresponse.write(\'" method="post">\\n                        <select class="form-control" title="cambiar_colores" name="color" onchange="this.form.submit()">\\n                            <option value="0">---</option>\\n                            <option value="1">SiraDex</option>\\n                            <option value="2">Contraste</option>\\n                            <option value="3">Rustico</option>\\n                            <option value="4">Sorpresa</option>\\n                        </select>\\n                    </form>\\n                        </li>\\n                    </ul>\\n                </nav>\\n            </aside>\\n\\t\\t\\t<!-- En esta seccion va t0do el contenido de la pagina -->\\n\\t\\t\\t<section class = "contenido">\\n\\t\\t\\t\\t<!-- Cuando se extienda este layout, el contenido del html\\n\\t\\t\\t\\t     entrara aqui -->\\n\\t\\t\\t\\t\', escape=False)\nresponse.write(\'\\n\\n<h3 id="titulo"> Consulta de Tipo de Actividad</h3>\\n<br/>\\n<!-- Boton para volver, se elimino porque se pensaba no tenia mucha utilidad\\n<button class="btn btn-default">\\n    <a href="\', escape=False)\nresponse.write(request.env.http_referer)\nresponse.write(\'">Volver</a>\\n</button>\\n-->\\n<!-- <button class="btn btn-default" onClick="\', escape=False)\nresponse.write(URL(c=\'tipo_actividad\', f=\'modificar_tipo.html\', args=[tipo.id_tipo]))\nresponse.write(\'"> -->\\n<!-- <button class="btn btn-link"> -->\\n    <a href="\', escape=False)\nresponse.write(URL(c=\'tipo_actividad\', f=\'editar_tipo.html\', args=[tipo.id_tipo]))\nresponse.write(\'">Editar</a>\\n<!-- </button> -->\\n<br/>\\n<br/>\\n\\n<table class="table table-bordered">\\n    <tr> <th class="col-md-2">Nombre</td>           <td class="col-md-6">\', escape=False)\nresponse.write(tipo.nombre)\nresponse.write(\'</td> </tr>\\n    <tr> <th class="col-md-2">Descripci\\xc3\\xb3n</td>      <td class="col-md-6">\', escape=False)\nresponse.write(tipo.descripcion)\nresponse.write(\'</td> </tr>\\n    <tr> <th class="col-md-2">Tipo de Programa</td> <td class="col-md-6">\', escape=False)\nresponse.write(extraInfoTipo[\'tipo\'])\nresponse.write(\'</td> </tr>\\n    <tr> <th class="col-md-2">Programa</td>         <td class="col-md-6">\', escape=False)\nresponse.write(extraInfoTipo[\'programa\'])\nresponse.write(\'</td> </tr>\\n    <!--<tr> <th class="col-md-2">Producto</td>         <td class="col-md-6">\', escape=False)\nresponse.write(tipo.producto)\nresponse.write(\'</td> </tr>-->\\n</table>\\n\\n<h4> Campos </h4>\\n<table class="table table-bordered">\\n    <thead>\\n        <tr>\\n            <th class="col-md-4">Nombre</td>\\n            <th class="col-md-3">Tipo</td>\\n            <th class="col-md-2">Obligatorio</td>\\n        </tr>\\n    </thead>\\n    <tbody>\\n        \', escape=False)\nfor campo in campos:\n    response.write(\'\\n            <tr>\\n                <td class="col-md-4">\', escape=False)\n    response.write(campo.nombre)\n    response.write(\'</td>\\n                <td class="col-md-3">\', escape=False)\n    response.write(campo.lista)\n    response.write(\'</td>\\n                <td class="col-md-2">\', escape=False)\n    response.write(campo.obligatorio)\n    response.write(\'</td>\\n            </tr>\\n        \', escape=False)\n    pass\nresponse.write(\'\\n    </tbody>\\n</table>\\n\', escape=False)\nresponse.write(\'\\n\\n\\t\\t\\t</section><!-- close contenido -->\\n\\t\\t</section><!-- close main -->\\n\\t\\t<!-- Es un footer pues -->\\n        <footer>\\n            <nav class="navbar navbar-default">\\n              <div class="container-fluid">\\n                <p id="footerContactenos">Sartenejas, Baruta, Edo. Miranda - Apartado 89000 - Cable Unibolivar - Caracas Venezuela. Tel\\xc3\\xa9fono +58 0212-906.3111</p>\\n              </div>\\n            </nav>\\n\\t\\t</footer>\\n\\n        <!-- JavaScript de bootstrap -->\\n        <script src="\', escape=False)\nresponse.write(URL(\'static\',\'js/bootstrap.min.js\'))\nresponse.write(\'"></script>\\n        <script src="\', escape=False)\nresponse.write(URL(\'static\',\'js/web2py-bootstrap3.js\'))\nresponse.write(\'"></script>\\n\\n\\t</body>\\n</html>\\n\', escape=False)'
p7
sS'snapshot'
p8
(dp9
sS'traceback'
p10
S'Traceback (most recent call last):\n  File "/home/edward/web2py/gluon/restricted.py", line 227, in restricted\n    exec ccode in environment\n  File "/home/edward/web2py/applications/SiraDex/views/tipo_actividad/ver_tipo_actividad.html", line 122, in <module>\nTypeError: string indices must be integers, not str\n'
p11
s.