(dp1
S'output'
p2
S"<type 'exceptions.ImportError'> Cannot import module 'applications.Sistemas2.modules.ldap'"
p3
sS'layer'
p4
S'/home/francisco/web2py/applications/Sistemas2/controllers/default.py'
p5
sS'code'
p6
S'# -*- coding: utf-8 -*-\n# this file is released under public domain and you can use without limitations\n\n# -------------------------------------------------------------------------\n# This is a sample controller\n# - index is the default action of any application\n# - user is required for authentication and authorization\n# - download is for downloading files uploaded in the db (does streaming)\n# -------------------------------------------------------------------------\nimport os\nimport re\nfrom usbutils import get_ldap_data, random_key\nimport urllib2\n### required - do no delete\ndef user(): return dict(form=auth())\ndef download(): return response.download(request,db)\ndef call(): return service()\n### end requires\n\n## URLS DE RETORNO PARA EL CAS ##\n## Solo descomentar segun sea el caso.\n## PARA EL SERVIDOR:\n# URL_RETORNO = "http%3A%2F%2F159.90.211.179%2FSiraDex%2Fdefault%2Flogin_cas"\n## PARA DESSARROLLO. Cambiar el puerto 8000 si es necesario.\nURL_RETORNO = "http%3A%2F%2Flocalhost%3A8000%2FSiraDex%2Fdefault%2Flogin_cas"\n\n########################################################################################################\n############################################# FUNCIONES USUARIO ########################################\n########################################################################################################\ndef get_tipo_usuario():\n    if session.usuario != None:\n        if session.usuario["tipo"] == "Bloqueado":\n            redirect(URL(c = "default",f="index"))\n        if session.usuario["tipo"] == "Administrador":\n            if(session.usuario["tipo"] == "DEX"):\n                admin = 2\n            elif(session.usuario["tipo"] == "Administrador"):\n                admin = 1\n            elif(session.usuario["tipo"] == "Bloqueado"):\n                admin = -1\n            else:\n                admin = 0\n        else:\n            redirect(URL(c ="default",f="vMenuPrincipal"))\n    else:\n        redirect(URL(c ="default",f="index"))\n\ndef login_cas():\n    if not request.vars.getfirst(\'ticket\'):\n        #redirect(URL(\'error\'))\n        pass\n    try:\n        import urllib2, ssl\n        ssl._create_default_https_context = ssl._create_unverified_context\n        url = "https://secure.dst.usb.ve/validate?ticket="+\\\n              request.vars.getfirst(\'ticket\') +\\\n              "&service=" + URL_RETORNO\n        req = urllib2.Request(url)\n        response = urllib2.urlopen(req)\n        the_page = response.read()\n\n    except Exception, e:\n        print "Exception: "\n        print e\n        # redirect(URL(\'error\'))\n\n    if the_page[0:2] == "no":\n        pass\n    else:\n        # session.casticket = request.vars.getfirst(\'ticket\')\n        data  = the_page.split()\n        usbid = data[1]\n\n        usuario = get_ldap_data(usbid) #Se leen los datos del CAS\n        tablaUsuarios = db.USUARIO\n\n        session.usuario = usuario\n        print "Hola",session.usuario\n        session.usuario[\'usbid\'] = usbid\n\n        if not db(tablaUsuarios.usbid == usbid).isempty():\n            datosUsuario = db(tablaUsuarios.usbid==usbid).select()[0]\n            session.usuario[\'tipo\'] = datosUsuario.tipo\n            redirect(URL(\'vMenuPrincipal\'))\n        else:\n            session.usuario[\'tipo\'] = "Administrador"\n            db.USUARIO.insert(ci=session.usuario["cedula"],  # Lo insertamos en la base de datos.\n            usbid=session.usuario["usbid"],\n            nombres=session.usuario["first_name"],\n            apellidos=session.usuario["last_name"],\n            correo_inst=session.usuario["email"],\n            tipo = "Administrador")\n            redirect(URL(\'vRegistroUsuario\'))\n\ndef logout_cas():\n    session.usuario = None\n    return response.render()\n\n#Funcion del inicio\ndef index():\n    datosComp = ["","","","","","","",""]\n    return response.render()\n\n# Controlador para el registro del usuario\ndef vRegistroUsuario():\n    if session.usuario != None:\n        # Se usa un formulario que muestre los datos no modificables.\n        form = SQLFORM.factory(\n            Field("USBID", default=session.usuario["usbid"],writable = False),\n            Field(\'Nombres\',default=session.usuario["first_name"],writable = False),\n            Field(\'Apellidos\', default=session.usuario["last_name"],writable=False),\n            readonly=True)\n\n        #Realiza las modificaciones sobre la base de datos en funcion de lo que introduzca el usuario.\n        usuarios = db(db.USUARIO).select()\n        for raw in usuarios:\n            if raw.ci == session.usuario["cedula"]:\n                print("SE metio")\n                forma=SQLFORM(\n                    db.USUARIO,\n                    raw,\n                    button=[\'Registrarse\'],\n                    fields=[\'telefono\',\'correo_alter\'],\n                    submit_button=\'Registrarse\',\n                    labels={\'telefono\':\'Tel\xc3\xa9fono\', \'correo_alter\':\'Correo alternativo\'})\n                break\n        if len(request.vars)!=0:\n            nuevoTelefono = request.vars.telefono\n            nuevoCorreoAlter = request.vars.correo_alter\n            db(db.USUARIO.ci == session.usuario["cedula"]).update(telefono=nuevoTelefono, correo_alter=nuevoCorreoAlter)\n            redirect(URL(\'vMenuPrincipal\'))        # Redirige al usuario al menu principal.\n        return dict(form1 = form, form = forma, admin=get_tipo_usuario())\n    else:\n        redirect(URL("index"))\n\ndef vVerPerfil():\n    if session.usuario != None:\n\tif session.usuario["tipo"] == "Bloqueado":\n\t    redirect(URL("index"))\n        admin = 4\n        if(session.usuario["tipo"] == "DEX"):\n            admin = 2\n        elif(session.usuario["tipo"] == "Administrador"):\n            admin = 1\n        else:\n            admin = 0\n        tlf = None\n        correo_a = None\n        correo_i = None\n        usuarios = db(db.USUARIO).select()\n        for raw in usuarios:\n            if raw.ci == session.usuario["cedula"]:\n                tlf = raw.telefono\n                correo_a = raw.correo_alter\n                correo_i = raw.correo_inst\n        form = SQLFORM.factory(\n            Field("USBID", default=session.usuario["usbid"],writable = False),\n            Field(\'Nombres\',default=session.usuario["first_name"],writable = False),\n            Field(\'Apellidos\', default=session.usuario["last_name"],writable=False),\n            Field(\'Correo_Institucional\', default=correo_i,writable=False),\n            Field(\'Telefono\',label = "Tel\xc3\xa9fono", default=tlf,writable=False),\n            Field(\'Correo_Alternativo\', default=correo_a,writable=False),\n            readonly=True)\n        return dict(form1 = form,admin = admin)\n    else:\n        redirect(URL("index"))\n\ndef vMenuPrincipal():\n    if session.usuario != None:\n        admin = 4\n        if(session.usuario["tipo"] == "DEX"):\n            admin = 2\n        elif(session.usuario["tipo"] == "Administrador"):\n            admin = 1\n        else:\n            admin = 0\n        return dict(admin = admin)\n    else:\n        redirect(URL("index"))\n\ndef vMenuDex():\n    if session.usuario != None:\n        if session.usuario["tipo"] == "Bloqueado":\n            redirect(URL("index"))\n        if session.usuario["tipo"] == "DEX" or session.usuario["tipo"] == "Administrador":\n            admin = 4\n            if(session.usuario["tipo"] == "DEX"):\n                admin = 2\n            elif(session.usuario["tipo"] == "Administrador"):\n                admin = 1\n            else:\n                admin = 0\n            return dict(admin = admin)\n        else:\n            redirect(URL("vMenuPrincipal"))\n    else:\n        redirect(URL("index"))\n\ndef vEditarPerfil():\n    if session.usuario != None:\n        if session.usuario["tipo"] == "Bloqueado":\n            redirect(URL("index"))\n        if(session.usuario["tipo"] == "DEX"):\n            admin = 2\n        elif(session.usuario["tipo"] == "Administrador"):\n            admin = 1\n        else:\n            admin = 0\n        form = SQLFORM.factory(\n            Field("USBID", default=session.usuario["usbid"],writable = False),\n            Field(\'Nombres\',default=session.usuario["first_name"],writable = False),\n            Field(\'Apellidos\', default=session.usuario["last_name"],writable=False),\n            readonly=True)\n        usuarios = db(db.USUARIO).select()\n        # Modificar datos del perfil.\n        for raw in usuarios:\n            if raw.ci == session.usuario["cedula"]:\n                forma=SQLFORM(\n                    db.USUARIO,\n                    record=raw,\n                    button=[\'Actualizar\'],\n                    fields=[\'telefono\',\'correo_alter\'],\n                    submit_button=\'Actualizar\',\n                    labels={\'telefono\':\'Tel\xc3\xa9fono\', \'correo_alter\':\'Correo alternativo\'})\n        if len(request.vars)!=0:\n            nuevoTelefono = request.vars.telefono\n            nuevoCorreoAlter = request.vars.correo_alter\n            db(db.USUARIO.ci == session.usuario["cedula"]).update(telefono=nuevoTelefono, correo_alter=nuevoCorreoAlter)\n            redirect(URL(\'vVerPerfil\'))\n\n        return dict(form1 = form, form = forma, admin = admin)\n    else:\n        redirect(URL("index"))\n\n##########################################################################################################\n###################################  FUNCIONES GESTIONAR USUARIO  ########################################\n##########################################################################################################\n\ndef vMenuAdmin():\n    if session.usuario != None:\n        if session.usuario["tipo"] == "Bloqueado":\n            redirect(URL("index"))\n        if session.usuario["tipo"] == "Administrador":\n            session.message = ""\n            return response.render(admin = get_tipo_usuario())\n        else:\n            redirect(URL("vMenuPrincipal"))\n    else:\n        redirect(URL("index"))\n\ndef vGestionarUsuarios():\n    if session.usuario != None:\n        if session.usuario["tipo"] == "Bloqueado":\n            redirect(URL("index"))\n        if session.usuario["tipo"] == "Administrador":\n            message = session.message\n            session.message = ""\n            aux = db(db.USUARIO).select(db.USUARIO.usbid,db.USUARIO.nombres,db.USUARIO.apellidos,db.USUARIO.tipo)\n            return dict(usuarios = aux,message = message, admin=get_tipo_usuario())\n        else:\n            redirect(URL("vMenuPrincipal"))\n    else:\n        redirect(URL("index"))\n\ndef vAgregarUsuario():\n    if session.usuario != None:\n        if session.usuario["tipo"] == "Bloqueado":\n            redirect(URL("index"))\n        if session.usuario["tipo"] == "Administrador":\n            message = ""\n            datosCompAux = ["","","","","","","",""]    # En esta lista guardaremos todos los datos que seran extraidos del LDAP para crear el nuevo usuario\n            forma=SQLFORM(                              # Se hace un formulario para introducir un USBID.\n                db.USUARIO,\n                button=[\'Agregar\'],\n                fields=[\'usbid\',\'tipo\',\'telefono\',\'correo_alter\'],\n                submit_button=\'Agregar\',\n                labels={\'usbid\':\'USBID\',\'telefono\':\'Tel\xc3\xa9fono\', \'correo_alter\':\'Correo alternativo\',\'tipo\':\'Tipo\'})\n            # Si el largo de request.vars es mayor a cero, quiere decir que de introdujo informacion en el formulario.\n            if len(request.vars)!=0:\n                # En usbidAux almacenamos el usbid proporcionado por el administrador\n                # En imprimir1 almacenamos la informacion del LDAP con grep\n                usbidAux = request.vars.usbid\n                user = get_ldap_data(usbidAux)\n                telefonoAux = request.vars.telefono\n                correo_alterAux = request.vars.correo_alter\n                tipoAux = request.vars.tipo\n                if(len(tipoAux) < 3):\n                    message = T("Debe Especificar un Tipo")\n                    redirect(URL("vAgregarUsuario"))\n                imprimir1 = os.popen("ldapsearch -x -h ldap.usb.ve -b \\"dc=usb,dc=ve\\" uid="+ usbidAux +" | grep \'^givenName\\|^personalId\\|^sn\\|^uid:\\|^mail\\|^studentId\\|^career\\|^gidNumber\'")\n\n                # Recorremos cada linea del archivo para realizar las asignaciones correspondientes de acuerdo a la informacion proporcionada por el LDAP\n                for line in imprimir1.readlines():\n                    line = line.split(\':\')        # Separamos los campos por los dos puntos.\n                    if line[0] == "uid":          # Primera Posicion: Carnet con guion.\n                        datosCompAux[0] = line[1]\n                    elif line[0] == "givenName":  # Segunda Posicion: Nombre(s) del usuario.\n                        datosCompAux[1] = line[1]\n                    elif line[0] == "sn":         # Tercera Posicion: Apellido(s) del usuario.\n                        datosCompAux[2] = line[1]\n                    elif line[0] == "personalId": # Cuarta Posicion: Cedula de identidad del usuario.\n                        datosCompAux[3] = line[1]\n                    elif line[0] == "gidNumber":  # Quinta Posicion: Rol del usuario (Profesor, estudiante, etc.).\n                        datosCompAux[4] = line[1]\n                    elif line[0] == "mail":       # Sexta Posicion: Email del usuario.\n                        datosCompAux[5] = line[1]\n                    elif line[0] == "career":     # Septima posicion: Carrera del usuario.\n                        datosCompAux[6] = line[1]\n                    elif line[0] == "studentId":  # Octava posicion: Carnet sin guion.\n                        datosCompAux[7] = line[1]\n\n                # Si datosCompAux esta vacio, quiere decir que no se el carnet no esta en LDAP\n                print(datosCompAux)\n                if datosCompAux[0]=="":\n                    message = T("El usuario no se encuentra asociado al CAS")\n                    #return dict(message = response.flash)\n                # En caso contrario, el usuario debe ser agregado a la base de datos de la universidad.\n                else:\n                    # Primero verificamos que el usuario que intenta agregarse no esta en la base de datos\n                    if db(db.USUARIO.usbid == usbidAux).isempty():\n                        # Lo insertamos en la base de datos.\n                        db.USUARIO.insert(ci=user["cedula"],\n                                usbid=usbidAux,\n                                nombres=datosCompAux[1],\n                                apellidos=datosCompAux[2],\n                                correo_inst=user["email"],\n                                telefono = telefonoAux,\n                                correo_alter = correo_alterAux,\n                                tipo = tipoAux)\n\n                        # Luego de insertar al usuario, mostramos un formulario al administrador con los datos de la persona agregada\n                        form = SQLFORM.factory(\n                            Field("USBID", default=datosCompAux[0],writable = False),\n                            Field(\'Nombres\',default=datosCompAux[1],writable = False),\n                            Field(\'apellidos\', default=datosCompAux[2],writable=False),\n                            readonly=True)\n                        return dict(form = form, message = message, bool = 1, admin=get_tipo_usuario())\n                    else:\n                        message= T("El usuario ya esta registrado")\n                        #return dict(message = response.flash)\n            return dict(form = forma,message = message, admin=get_tipo_usuario())\n        else:\n            redirect(URL("vMenuPrincipal"))\n    else:\n        redirect(URL("index"))\n\ndef vEliminarUsuario():\n    if session.usuario != None:\n        if session.usuario["tipo"] == "Bloqueado":\n            redirect(URL("index"))\n        if session.usuario["tipo"] == "Administrador":\n            if len(request.args)!=0 :\n                if request.args[0] != session.usuario["usbid"]:\n                    session.message = ""\n                    if (not db(db.USUARIO.usbid == request.args[0]).isempty()):\n                        db(db.USUARIO.usbid == request.args[0]).delete()\n                        redirect(URL(\'vGestionarUsuarios\'))\n                else:\n                    session.message = T("Para eliminar su cuenta, por favor comun\xc3\xadquese con un administrador")\n                    redirect(URL(\'vGestionarUsuarios\'))\n        else:\n            redirect(URL("vMenuPrincipal"))\n    else:\n        redirect(URL("index"))\n\ndef vModificarRol():\n    if session.usuario != None:\n        if session.usuario["tipo"] == "Bloqueado":\n            redirect(URL("index"))\n        if session.usuario["tipo"] == "Administrador":\n            message= ""\n            form = SQLFORM.factory(\n                            Field("USBID", default=request.args[0],writable = False),\n                            readonly=True)\n            forma=SQLFORM(\n                    db.USUARIO,\n                    button=[\'Actualizar\'],\n                    fields=[\'tipo\'],\n                    submit_button=\'Actualizar\',\n                    labels={\'tipo\':\'TIPO\'})\n            if len(request.vars)!=0:\n                if (not db(db.USUARIO.usbid == request.args[0]).isempty()):\n                    if(request.args[0] != session.usuario["usbid"]):\n                        db(db.USUARIO.usbid == request.args[0]).update(tipo = request.vars.tipo)\n                        redirect(URL(\'vGestionarUsuarios\'))\n                    else:\n                        message = T("Para cambiar sus permisos, por favor comun\xc3\xadquese con un administrador")\n                else:\n                    message = T("El Usuario no se encuentra registrado")\n\n            return dict(forma = form, form = forma, message = message, admin=get_tipo_usuario())\n        else:\n            redirect(URL("vMenuPrincipal"))\n    else:\n        redirect(URL("index"))\n\ndef setVista():\n    session.vista = int(request.args[0])\n\n    if session.vista == 0:\n        redirect(URL(c=\'actividad\', f=\'gestionar.html\'))\n    elif session.vista == 1:\n        redirect(URL(c=\'tipo_actividad\', f=\'gestionar.html\'))\n    elif session.vista == 2:\n        redirect(URL(c=\'default\', f=\'vGestionarUsuarios.html\'))\n    else:\n        print(\'NO JUEGUES CON MI SISTEMA\')\n\n    return dict(admin = get_tipo_usuario())\n\ndef get_tipo_usuario():\n    if session.usuario != None:\n        if session.usuario["tipo"] == "DEX" or session.usuario["tipo"] == "Administrador":\n            if(session.usuario["tipo"] == "DEX"):\n                admin = 2\n            elif(session.usuario["tipo"] == "Administrador"):\n                admin = 1\n            else:\n                admin = 0\n        else:\n            redirect(URL(c ="default",f="vMenuPrincipal"))\n    else:\n        redirect(URL(c ="default",f="index"))\n\n    return admin\n\ndef cambiar_colores():\n\n    session.template = int(request.vars[\'color\'])\n    print(session.template)\n    if request.env.http_referer:\n        redirect(request.env.http_referer)\n\n    return dict()\n\nresponse._vars=response._caller(index)\n'
p7
sS'snapshot'
p8
(dp9
S'exception'
p10
(dp11
S'__hash__'
p12
S"<method-wrapper '__hash__' of exceptions.ImportError object>"
p13
sS'__setattr__'
p14
S"<method-wrapper '__setattr__' of exceptions.ImportError object>"
p15
sS'__reduce_ex__'
p16
S'<built-in method __reduce_ex__ of exceptions.ImportError object>'
p17
sS'__getslice__'
p18
S"<method-wrapper '__getslice__' of exceptions.ImportError object>"
p19
sS'__getitem__'
p20
S"<method-wrapper '__getitem__' of exceptions.ImportError object>"
p21
sS'__setstate__'
p22
S'<built-in method __setstate__ of exceptions.ImportError object>'
p23
sS'args'
p24
S'("Cannot import module \'applications.Sistemas2.modules.ldap\'",)'
p25
sS'__reduce__'
p26
S'<built-in method __reduce__ of exceptions.ImportError object>'
p27
sS'__str__'
p28
S"<method-wrapper '__str__' of exceptions.ImportError object>"
p29
sS'__format__'
p30
S'<built-in method __format__ of exceptions.ImportError object>'
p31
sS'__getattribute__'
p32
S"<method-wrapper '__getattribute__' of exceptions.ImportError object>"
p33
sS'__class__'
p34
S"<type 'exceptions.ImportError'>"
p35
sS'__unicode__'
p36
S'<built-in method __unicode__ of exceptions.ImportError object>'
p37
sS'__delattr__'
p38
S"<method-wrapper '__delattr__' of exceptions.ImportError object>"
p39
sS'__subclasshook__'
p40
S'<built-in method __subclasshook__ of type object>'
p41
sS'__repr__'
p42
S"<method-wrapper '__repr__' of exceptions.ImportError object>"
p43
sS'__dict__'
p44
S'{}'
p45
sS'__sizeof__'
p46
S'<built-in method __sizeof__ of exceptions.ImportError object>'
p47
sS'__doc__'
p48
S'"Import can\'t find module, or can\'t find name in module."'
p49
sS'__init__'
p50
S"<method-wrapper '__init__' of exceptions.ImportError object>"
p51
sS'__new__'
p52
S'<built-in method __new__ of type object>'
p53
ssS'evalue'
p54
S"Cannot import module 'applications.Sistemas2.modules.ldap'"
p55
sS'request'
p56
cgluon.html
XML_unpickle
p57
(S's\xa8Z\x00\x00<div><table><tr><td style="font-weight:bold;vertical-align:top;">ajax</td><td style="vertical-align:top;">:</td><td><div>False</div></td></tr><tr><td style="font-weight:bold;vertical-align:top;">application</td><td style="vertical-align:top;">:</td><td><div>Sistemas2</div></td></tr><tr><td style="font-weight:bold;vertical-align:top;">args</td><td style="vertical-align:top;">:</td><td><div><table></table></div></td></tr><tr><td style="font-weight:bold;vertical-align:top;">cid</td><td style="vertical-align:top;">:</td><td><div>None</div></td></tr><tr><td style="font-weight:bold;vertical-align:top;">client</td><td style="vertical-align:top;">:</td><td><div>127.0.0.1</div></td></tr><tr><td style="font-weight:bold;vertical-align:top;">controller</td><td style="vertical-align:top;">:</td><td><div>default</div></td></tr><tr><td style="font-weight:bold;vertical-align:top;">cookies</td><td style="vertical-align:top;">:</td><td><div><table><tr><td style="font-weight:bold;vertical-align:top;">session_id_admin</td><td style="vertical-align:top;">:</td><td><div>127.0.0.1-cd221294-3f34-4cf4-847a-0a0aaa8b28cf<table><tr><td style="font-weight:bold;vertical-align:top;">comment</td><td style="vertical-align:top;">:</td><td><div></div></td></tr><tr><td style="font-weight:bold;vertical-align:top;">domain</td><td style="vertical-align:top;">:</td><td><div></div></td></tr><tr><td style="font-weight:bold;vertical-align:top;">expires</td><td style="vertical-align:top;">:</td><td><div></div></td></tr><tr><td style="font-weight:bold;vertical-align:top;">httponly</td><td style="vertical-align:top;">:</td><td><div></div></td></tr><tr><td style="font-weight:bold;vertical-align:top;">max-age</td><td style="vertical-align:top;">:</td><td><div></div></td></tr><tr><td style="font-weight:bold;vertical-align:top;">path</td><td style="vertical-align:top;">:</td><td><div></div></td></tr><tr><td style="font-weight:bold;vertical-align:top;">secure</td><td style="vertical-align:top;">:</td><td><div></div></td></tr><tr><td style="font-weight:bold;vertical-align:top;">version</td><td style="vertical-align:top;">:</td><td><div></div></td></tr></table></div></td></tr><tr><td style="font-weight:bold;vertical-align:top;">session_id_siradex</td><td style="vertical-align:top;">:</td><td><div>127.0.0.1-669e8ac3-4161-486e-b5a0-42e605d135b4<table><tr><td style="font-weight:bold;vertical-align:top;">comment</td><td style="vertical-align:top;">:</td><td><div></div></td></tr><tr><td style="font-weight:bold;vertical-align:top;">domain</td><td style="vertical-align:top;">:</td><td><div></div></td></tr><tr><td style="font-weight:bold;vertical-align:top;">expires</td><td style="vertical-align:top;">:</td><td><div></div></td></tr><tr><td style="font-weight:bold;vertical-align:top;">httponly</td><td style="vertical-align:top;">:</td><td><div></div></td></tr><tr><td style="font-weight:bold;vertical-align:top;">max-age</td><td style="vertical-align:top;">:</td><td><div></div></td></tr><tr><td style="font-weight:bold;vertical-align:top;">path</td><td style="vertical-align:top;">:</td><td><div></div></td></tr><tr><td style="font-weight:bold;vertical-align:top;">secure</td><td style="vertical-align:top;">:</td><td><div></div></td></tr><tr><td style="font-weight:bold;vertical-align:top;">version</td><td style="vertical-align:top;">:</td><td><div></div></td></tr></table></div></td></tr><tr><td style="font-weight:bold;vertical-align:top;">session_id_welcome</td><td style="vertical-align:top;">:</td><td><div>127.0.0.1-88b8d713-8407-4a74-be70-cdaa2722b4a8<table><tr><td style="font-weight:bold;vertical-align:top;">comment</td><td style="vertical-align:top;">:</td><td><div></div></td></tr><tr><td style="font-weight:bold;vertical-align:top;">domain</td><td style="vertical-align:top;">:</td><td><div></div></td></tr><tr><td style="font-weight:bold;vertical-align:top;">expires</td><td style="vertical-align:top;">:</td><td><div></div></td></tr><tr><td style="font-weight:bold;vertical-align:top;">httponly</td><td style="vertical-align:top;">:</td><td><div></div></td></tr><tr><td style="font-weight:bold;vertical-align:top;">max-age</td><td style="vertical-align:top;">:</td><td><div></div></td></tr><tr><td style="font-weight:bold;vertical-align:top;">path</td><td style="vertical-align:top;">:</td><td><div></div></td></tr><tr><td style="font-weight:bold;vertical-align:top;">secure</td><td style="vertical-align:top;">:</td><td><div></div></td></tr><tr><td style="font-weight:bold;vertical-align:top;">version</td><td style="vertical-align:top;">:</td><td><div></div></td></tr></table></div></td></tr></table></div></td></tr><tr><td style="font-weight:bold;vertical-align:top;">env</td><td style="vertical-align:top;">:</td><td><div><table><tr><td style="font-weight:bold;vertical-align:top;">HTTP_ACCEPT</td><td style="vertical-align:top;">:</td><td><div>text/html,application/xhtml+xml,application/xml;q=0.9,*/*;q=0.8</div></td></tr><tr><td style="font-weight:bold;vertical-align:top;">HTTP_ACCEPT_ENCODING</td><td style="vertical-align:top;">:</td><td><div>gzip, deflate</div></td></tr><tr><td style="font-weight:bold;vertical-align:top;">HTTP_ACCEPT_LANGUAGE</td><td style="vertical-align:top;">:</td><td><div>en-US,en;q=0.5</div></td></tr><tr><td style="font-weight:bold;vertical-align:top;">HTTP_CONNECTION</td><td style="vertical-align:top;">:</td><td><div>keep-alive</div></td></tr><tr><td style="font-weight:bold;vertical-align:top;">HTTP_COOKIE</td><td style="vertical-align:top;">:</td><td><div>session_id_welcome=127.0.0.1-88b8d713-8407-4a74-be70-cdaa2722b4a8; session_id_admin=127.0.0.1-cd221294-3f34-4cf4-847a-0a0aaa8b28cf; session_id_siradex=127.0.0.1-669e8ac3-4161-486e-b5a0-42e605d135b4</div></td></tr><tr><td style="font-weight:bold;vertical-align:top;">HTTP_HOST</td><td style="vertical-align:top;">:</td><td><div>127.0.0.1:8000</div></td></tr><tr><td style="font-weight:bold;vertical-align:top;">HTTP_REFERER</td><td style="vertical-align:top;">:</td><td><div>http://127.0.0.1:8000/admin/default/site</div></td></tr><tr><td style="font-weight:bold;vertical-align:top;">HTTP_UPGRADE_INSECURE_REQUESTS</td><td style="vertical-align:top;">:</td><td><div>1</div></td></tr><tr><td style="font-weight:bold;vertical-align:top;">HTTP_USER_AGENT</td><td style="vertical-align:top;">:</td><td><div>Mozilla/5.0 (X11; Ubuntu; Linux x86_64; rv:49.0) Gecko/20100101 Firefox/49.0</div></td></tr><tr><td style="font-weight:bold;vertical-align:top;">PATH_INFO</td><td style="vertical-align:top;">:</td><td><div>/Sistemas2/default/index</div></td></tr><tr><td style="font-weight:bold;vertical-align:top;">QUERY_STRING</td><td style="vertical-align:top;">:</td><td><div></div></td></tr><tr><td style="font-weight:bold;vertical-align:top;">REMOTE_ADDR</td><td style="vertical-align:top;">:</td><td><div>127.0.0.1</div></td></tr><tr><td style="font-weight:bold;vertical-align:top;">REMOTE_PORT</td><td style="vertical-align:top;">:</td><td><div>38932</div></td></tr><tr><td style="font-weight:bold;vertical-align:top;">REQUEST_METHOD</td><td style="vertical-align:top;">:</td><td><div>GET</div></td></tr><tr><td style="font-weight:bold;vertical-align:top;">SCRIPT_NAME</td><td style="vertical-align:top;">:</td><td><div></div></td></tr><tr><td style="font-weight:bold;vertical-align:top;">SERVER_NAME</td><td style="vertical-align:top;">:</td><td><div>PC</div></td></tr><tr><td style="font-weight:bold;vertical-align:top;">SERVER_PORT</td><td style="vertical-align:top;">:</td><td><div>8000</div></td></tr><tr><td style="font-weight:bold;vertical-align:top;">SERVER_PROTOCOL</td><td style="vertical-align:top;">:</td><td><div>HTTP/1.1</div></td></tr><tr><td style="font-weight:bold;vertical-align:top;">SERVER_SOFTWARE</td><td style="vertical-align:top;">:</td><td><div>Rocket 1.2.6</div></td></tr><tr><td style="font-weight:bold;vertical-align:top;">app_folders</td><td style="vertical-align:top;">:</td><td><div>set([&#x27;/home/francisco/web2py/applications/Sistemas2/&#x27;, &#x27;/home/francisco/web2py/applications/admin/&#x27;, &#x27;/home/francisco/web2py/applications/welcome/&#x27;])</div></td></tr><tr><td style="font-weight:bold;vertical-align:top;">applications_parent</td><td style="vertical-align:top;">:</td><td><div>/home/francisco/web2py</div></td></tr><tr><td style="font-weight:bold;vertical-align:top;">cmd_args</td><td style="vertical-align:top;">:</td><td><div><table></table></div></td></tr><tr><td style="font-weight:bold;vertical-align:top;">cmd_options</td><td style="vertical-align:top;">:</td><td><div>&lt;Values at 0x7fdb20bb7830: {&#x27;verbose&#x27;: False, &#x27;ip&#x27;: &#x27;127.0.0.1&#x27;, &#x27;debuglevel&#x27;: 30, &#x27;with_scheduler&#x27;: False, &#x27;shutdown_timeout&#x27;: 5, &#x27;taskbar&#x27;: False, &#x27;with_coverage&#x27;: False, &#x27;pid_filename&#x27;: &#x27;httpserver.pid&#x27;, &#x27;maxthreads&#x27;: None, &#x27;softcron&#x27;: False, &#x27;server_name&#x27;: &#x27;PC&#x27;, &#x27;bpython&#x27;: False, &#x27;nogui&#x27;: False, &#x27;port&#x27;: 8000, &#x27;print_errors&#x27;: False, &#x27;extcron&#x27;: False, &#x27;runcron&#x27;: False, &#x27;run_system_tests&#x27;: False, &#x27;test&#x27;: None, &#x27;folder&#x27;: &#x27;/home/francisco/web2py&#x27;, &#x27;config&#x27;: &#x27;&#x27;, &#x27;minthreads&#x27;: None, &#x27;shell&#x27;: None, &#x27;run&#x27;: &#x27;&#x27;, &#x27;log_filename&#x27;: &#x27;httpserver.log&#x27;, &#x27;profiler_dir&#x27;: None, &#x27;args&#x27;: [&#x27;&#x27;], &#x27;socket_timeout&#x27;: 5, &#x27;ssl_ca_certificate&#x27;: None, &#x27;scheduler&#x27;: None, &#x27;interfaces&#x27;: None, &#x27;ssl_private_key&#x27;: &#x27;&#x27;, &#x27;gae&#x27;: None, &#x27;password&#x27;: &#x27;******&#x27;, &#x27;request_queue_size&#x27;: 5, &#x27;ssl_certificate&#x27;: &#x27;&#x27;, &#x27;cronjob&#x27;: False, &#x27;numthreads&#x27;: None, &#x27;quiet&#x27;: False, &#x27;import_models&#x27;: False, &#x27;timeout&#x27;: 10, &#x27;plain&#x27;: False, &#x27;nobanner&#x27;: False}&gt;</div></td></tr><tr><td style="font-weight:bold;vertical-align:top;">db_sessions</td><td style="vertical-align:top;">:</td><td><div>set([])</div></td></tr><tr><td style="font-weight:bold;vertical-align:top;">debugging</td><td style="vertical-align:top;">:</td><td><div>False</div></td></tr><tr><td style="font-weight:bold;vertical-align:top;">gluon_parent</td><td style="vertical-align:top;">:</td><td><div>/home/francisco/web2py</div></td></tr><tr><td style="font-weight:bold;vertical-align:top;">http_accept</td><td style="vertical-align:top;">:</td><td><div>text/html,application/xhtml+xml,application/xml;q=0.9,*/*;q=0.8</div></td></tr><tr><td style="font-weight:bold;vertical-align:top;">http_accept_encoding</td><td style="vertical-align:top;">:</td><td><div>gzip, deflate</div></td></tr><tr><td style="font-weight:bold;vertical-align:top;">http_accept_language</td><td style="vertical-align:top;">:</td><td><div>en-US,en;q=0.5</div></td></tr><tr><td style="font-weight:bold;vertical-align:top;">http_connection</td><td style="vertical-align:top;">:</td><td><div>keep-alive</div></td></tr><tr><td style="font-weight:bold;vertical-align:top;">http_cookie</td><td style="vertical-align:top;">:</td><td><div>session_id_welcome=127.0.0.1-88b8d713-8407-4a74-be70-cdaa2722b4a8; session_id_admin=127.0.0.1-cd221294-3f34-4cf4-847a-0a0aaa8b28cf; session_id_siradex=127.0.0.1-669e8ac3-4161-486e-b5a0-42e605d135b4</div></td></tr><tr><td style="font-weight:bold;vertical-align:top;">http_host</td><td style="vertical-align:top;">:</td><td><div>127.0.0.1:8000</div></td></tr><tr><td style="font-weight:bold;vertical-align:top;">http_referer</td><td style="vertical-align:top;">:</td><td><div>http://127.0.0.1:8000/admin/default/site</div></td></tr><tr><td style="font-weight:bold;vertical-align:top;">http_upgrade_insecure_requests</td><td style="vertical-align:top;">:</td><td><div>1</div></td></tr><tr><td style="font-weight:bold;vertical-align:top;">http_user_agent</td><td style="vertical-align:top;">:</td><td><div>Mozilla/5.0 (X11; Ubuntu; Linux x86_64; rv:49.0) Gecko/20100101 Firefox/49.0</div></td></tr><tr><td style="font-weight:bold;vertical-align:top;">is_jython</td><td style="vertical-align:top;">:</td><td><div>False</div></td></tr><tr><td style="font-weight:bold;vertical-align:top;">is_pypy</td><td style="vertical-align:top;">:</td><td><div>False</div></td></tr><tr><td style="font-weight:bold;vertical-align:top;">is_source</td><td style="vertical-align:top;">:</td><td><div>True</div></td></tr><tr><td style="font-weight:bold;vertical-align:top;">local_hosts</td><td style="vertical-align:top;">:</td><td><div><table><tr><td><div>PC</div></td></tr><tr><td><div>::1</div></td></tr><tr><td><div>127.0.1.1</div></td></tr><tr><td><div>::ffff:127.0.0.1</div></td></tr><tr><td><div>127.0.0.1</div></td></tr></table></div></td></tr><tr><td style="font-weight:bold;vertical-align:top;">path_info</td><td style="vertical-align:top;">:</td><td><div>/Sistemas2/default/index</div></td></tr><tr><td style="font-weight:bold;vertical-align:top;">query_string</td><td style="vertical-align:top;">:</td><td><div></div></td></tr><tr><td style="font-weight:bold;vertical-align:top;">remote_addr</td><td style="vertical-align:top;">:</td><td><div>127.0.0.1</div></td></tr><tr><td style="font-weight:bold;vertical-align:top;">remote_port</td><td style="vertical-align:top;">:</td><td><div>38932</div></td></tr><tr><td style="font-weight:bold;vertical-align:top;">request_method</td><td style="vertical-align:top;">:</td><td><div>GET</div></td></tr><tr><td style="font-weight:bold;vertical-align:top;">request_uri</td><td style="vertical-align:top;">:</td><td><div>/Sistemas2/default/index</div></td></tr><tr><td style="font-weight:bold;vertical-align:top;">script_name</td><td style="vertical-align:top;">:</td><td><div></div></td></tr><tr><td style="font-weight:bold;vertical-align:top;">server_name</td><td style="vertical-align:top;">:</td><td><div>PC</div></td></tr><tr><td style="font-weight:bold;vertical-align:top;">server_port</td><td style="vertical-align:top;">:</td><td><div>8000</div></td></tr><tr><td style="font-weight:bold;vertical-align:top;">server_protocol</td><td style="vertical-align:top;">:</td><td><div>HTTP/1.1</div></td></tr><tr><td style="font-weight:bold;vertical-align:top;">server_software</td><td style="vertical-align:top;">:</td><td><div>Rocket 1.2.6</div></td></tr><tr><td style="font-weight:bold;vertical-align:top;">web2py_path</td><td style="vertical-align:top;">:</td><td><div>/home/francisco/web2py</div></td></tr><tr><td style="font-weight:bold;vertical-align:top;">web2py_version</td><td style="vertical-align:top;">:</td><td><div>2.14.6-stable+timestamp.2016.05.10.00.21.47</div></td></tr><tr><td style="font-weight:bold;vertical-align:top;">wsgi.errors</td><td style="vertical-align:top;">:</td><td><div>&lt;open file &#x27;&lt;stderr&gt;&#x27;, mode &#x27;w&#x27; at 0x7fdb2934c1e0&gt;</div></td></tr><tr><td style="font-weight:bold;vertical-align:top;">wsgi.file_wrapper</td><td style="vertical-align:top;">:</td><td><div>&lt;class wsgiref.util.FileWrapper at 0x7fdb20c4df58&gt;</div></td></tr><tr><td style="font-weight:bold;vertical-align:top;">wsgi.input</td><td style="vertical-align:top;">:</td><td><div>&lt;socket._fileobject object at 0x7fdb18272a50&gt;</div></td></tr><tr><td style="font-weight:bold;vertical-align:top;">wsgi.multiprocess</td><td style="vertical-align:top;">:</td><td><div>False</div></td></tr><tr><td style="font-weight:bold;vertical-align:top;">wsgi.multithread</td><td style="vertical-align:top;">:</td><td><div>True</div></td></tr><tr><td style="font-weight:bold;vertical-align:top;">wsgi.run_once</td><td style="vertical-align:top;">:</td><td><div>False</div></td></tr><tr><td style="font-weight:bold;vertical-align:top;">wsgi.url_scheme</td><td style="vertical-align:top;">:</td><td><div>http</div></td></tr><tr><td style="font-weight:bold;vertical-align:top;">wsgi.version</td><td style="vertical-align:top;">:</td><td><div><table><tr><td><div>1</div></td></tr><tr><td><div>0</div></td></tr></table></div></td></tr><tr><td style="font-weight:bold;vertical-align:top;">wsgi_errors</td><td style="vertical-align:top;">:</td><td><div>&lt;open file &#x27;&lt;stderr&gt;&#x27;, mode &#x27;w&#x27; at 0x7fdb2934c1e0&gt;</div></td></tr><tr><td style="font-weight:bold;vertical-align:top;">wsgi_file_wrapper</td><td style="vertical-align:top;">:</td><td><div>&lt;class wsgiref.util.FileWrapper at 0x7fdb20c4df58&gt;</div></td></tr><tr><td style="font-weight:bold;vertical-align:top;">wsgi_input</td><td style="vertical-align:top;">:</td><td><div>&lt;socket._fileobject object at 0x7fdb18272a50&gt;</div></td></tr><tr><td style="font-weight:bold;vertical-align:top;">wsgi_multiprocess</td><td style="vertical-align:top;">:</td><td><div>False</div></td></tr><tr><td style="font-weight:bold;vertical-align:top;">wsgi_multithread</td><td style="vertical-align:top;">:</td><td><div>True</div></td></tr><tr><td style="font-weight:bold;vertical-align:top;">wsgi_run_once</td><td style="vertical-align:top;">:</td><td><div>False</div></td></tr><tr><td style="font-weight:bold;vertical-align:top;">wsgi_url_scheme</td><td style="vertical-align:top;">:</td><td><div>http</div></td></tr><tr><td style="font-weight:bold;vertical-align:top;">wsgi_version</td><td style="vertical-align:top;">:</td><td><div><table><tr><td><div>1</div></td></tr><tr><td><div>0</div></td></tr></table></div></td></tr></table></div></td></tr><tr><td style="font-weight:bold;vertical-align:top;">extension</td><td style="vertical-align:top;">:</td><td><div>html</div></td></tr><tr><td style="font-weight:bold;vertical-align:top;">folder</td><td style="vertical-align:top;">:</td><td><div>/home/francisco/web2py/applications/Sistemas2/</div></td></tr><tr><td style="font-weight:bold;vertical-align:top;">function</td><td style="vertical-align:top;">:</td><td><div>index</div></td></tr><tr><td style="font-weight:bold;vertical-align:top;">global_settings</td><td style="vertical-align:top;">:</td><td><div><table><tr><td style="font-weight:bold;vertical-align:top;">app_folders</td><td style="vertical-align:top;">:</td><td><div>set([&#x27;/home/francisco/web2py/applications/Sistemas2/&#x27;, &#x27;/home/francisco/web2py/applications/admin/&#x27;, &#x27;/home/francisco/web2py/applications/welcome/&#x27;])</div></td></tr><tr><td style="font-weight:bold;vertical-align:top;">applications_parent</td><td style="vertical-align:top;">:</td><td><div>/home/francisco/web2py</div></td></tr><tr><td style="font-weight:bold;vertical-align:top;">cmd_args</td><td style="vertical-align:top;">:</td><td><div><table></table></div></td></tr><tr><td style="font-weight:bold;vertical-align:top;">cmd_options</td><td style="vertical-align:top;">:</td><td><div>&lt;Values at 0x7fdb20bb7830: {&#x27;verbose&#x27;: False, &#x27;ip&#x27;: &#x27;127.0.0.1&#x27;, &#x27;debuglevel&#x27;: 30, &#x27;with_scheduler&#x27;: False, &#x27;shutdown_timeout&#x27;: 5, &#x27;taskbar&#x27;: False, &#x27;with_coverage&#x27;: False, &#x27;pid_filename&#x27;: &#x27;httpserver.pid&#x27;, &#x27;maxthreads&#x27;: None, &#x27;softcron&#x27;: False, &#x27;server_name&#x27;: &#x27;PC&#x27;, &#x27;bpython&#x27;: False, &#x27;nogui&#x27;: False, &#x27;port&#x27;: 8000, &#x27;print_errors&#x27;: False, &#x27;extcron&#x27;: False, &#x27;runcron&#x27;: False, &#x27;run_system_tests&#x27;: False, &#x27;test&#x27;: None, &#x27;folder&#x27;: &#x27;/home/francisco/web2py&#x27;, &#x27;config&#x27;: &#x27;&#x27;, &#x27;minthreads&#x27;: None, &#x27;shell&#x27;: None, &#x27;run&#x27;: &#x27;&#x27;, &#x27;log_filename&#x27;: &#x27;httpserver.log&#x27;, &#x27;profiler_dir&#x27;: None, &#x27;args&#x27;: [&#x27;&#x27;], &#x27;socket_timeout&#x27;: 5, &#x27;ssl_ca_certificate&#x27;: None, &#x27;scheduler&#x27;: None, &#x27;interfaces&#x27;: None, &#x27;ssl_private_key&#x27;: &#x27;&#x27;, &#x27;gae&#x27;: None, &#x27;password&#x27;: &#x27;******&#x27;, &#x27;request_queue_size&#x27;: 5, &#x27;ssl_certificate&#x27;: &#x27;&#x27;, &#x27;cronjob&#x27;: False, &#x27;numthreads&#x27;: None, &#x27;quiet&#x27;: False, &#x27;import_models&#x27;: False, &#x27;timeout&#x27;: 10, &#x27;plain&#x27;: False, &#x27;nobanner&#x27;: False}&gt;</div></td></tr><tr><td style="font-weight:bold;vertical-align:top;">db_sessions</td><td style="vertical-align:top;">:</td><td><div>set([])</div></td></tr><tr><td style="font-weight:bold;vertical-align:top;">debugging</td><td style="vertical-align:top;">:</td><td><div>False</div></td></tr><tr><td style="font-weight:bold;vertical-align:top;">gluon_parent</td><td style="vertical-align:top;">:</td><td><div>/home/francisco/web2py</div></td></tr><tr><td style="font-weight:bold;vertical-align:top;">is_jython</td><td style="vertical-align:top;">:</td><td><div>False</div></td></tr><tr><td style="font-weight:bold;vertical-align:top;">is_pypy</td><td style="vertical-align:top;">:</td><td><div>False</div></td></tr><tr><td style="font-weight:bold;vertical-align:top;">is_source</td><td style="vertical-align:top;">:</td><td><div>True</div></td></tr><tr><td style="font-weight:bold;vertical-align:top;">local_hosts</td><td style="vertical-align:top;">:</td><td><div><table><tr><td><div>PC</div></td></tr><tr><td><div>::1</div></td></tr><tr><td><div>127.0.1.1</div></td></tr><tr><td><div>::ffff:127.0.0.1</div></td></tr><tr><td><div>127.0.0.1</div></td></tr></table></div></td></tr><tr><td style="font-weight:bold;vertical-align:top;">web2py_version</td><td style="vertical-align:top;">:</td><td><div>2.14.6-stable+timestamp.2016.05.10.00.21.47</div></td></tr></table></div></td></tr><tr><td style="font-weight:bold;vertical-align:top;">is_https</td><td style="vertical-align:top;">:</td><td><div>False</div></td></tr><tr><td style="font-weight:bold;vertical-align:top;">is_local</td><td style="vertical-align:top;">:</td><td><div>True</div></td></tr><tr><td style="font-weight:bold;vertical-align:top;">is_restful</td><td style="vertical-align:top;">:</td><td><div>False</div></td></tr><tr><td style="font-weight:bold;vertical-align:top;">is_scheduler</td><td style="vertical-align:top;">:</td><td><div>False</div></td></tr><tr><td style="font-weight:bold;vertical-align:top;">is_shell</td><td style="vertical-align:top;">:</td><td><div>False</div></td></tr><tr><td style="font-weight:bold;vertical-align:top;">now</td><td style="vertical-align:top;">:</td><td><div>datetime.datetime(2016, 9, 28, 21, 2, 45, 217540)</div></td></tr><tr><td style="font-weight:bold;vertical-align:top;">raw_args</td><td style="vertical-align:top;">:</td><td><div></div></td></tr><tr><td style="font-weight:bold;vertical-align:top;">raw_extension</td><td style="vertical-align:top;">:</td><td><div>None</div></td></tr><tr><td style="font-weight:bold;vertical-align:top;">url</td><td style="vertical-align:top;">:</td><td><div>/Sistemas2/default/index</div></td></tr><tr><td style="font-weight:bold;vertical-align:top;">utcnow</td><td style="vertical-align:top;">:</td><td><div>datetime.datetime(2016, 9, 29, 1, 2, 45, 217578)</div></td></tr><tr><td style="font-weight:bold;vertical-align:top;">wsgi</td><td style="vertical-align:top;">:</td><td><div>&lt;gluon.main.LazyWSGI object at 0x7fdb18245390&gt;</div></td></tr></table></div>'
tRp58
sS'frames'
p59
(lp60
(dp61
S'file'
p62
S'/home/francisco/web2py/gluon/restricted.py'
p63
sS'dump'
p64
(dp65
S'environment'
p66
S"{'A': <class 'gluon.html.A'>, 'ANY_OF': <class 'gluon.validators.ANY_OF'>, 'ASSIGNJS': <function ASSIGNJS>, 'AppConfig': <function AppConfig>, 'Auth': <class 'gluon.tools.Auth'>, 'B': <class 'gluon.html.B'>, 'BEAUTIFY': <class 'gluon.html.BEAUTIFY'>, 'BODY': <class 'gluon.html.BODY'>, 'BR': <class 'gluon.html.BR'>, 'BUTTON': <class 'gluon.html.BUTTON'>, ...}"
p67
sS'ccode'
p68
S'<code object <module> at 0x7fdb182727b0, file "/...tions/Sistemas2/controllers/default.py", line 10>'
p69
ssS'lnum'
p70
I227
sS'lines'
p71
(dp72
I224
S'            ccode = code'
p73
sI225
S'        else:'
p74
sI226
S'            ccode = compile2(code, layer)'
p75
sI227
S'        exec ccode in environment'
p76
sI228
S'    except HTTP:'
p77
sI229
S'        raise'
p78
sI230
S'    except RestrictedError:'
p79
sI231
S'        # do not encapsulate (obfuscate) the original RestrictedError'
p80
sI222
S'    try:'
p81
sI223
S'        if isinstance(code, types.CodeType):'
p82
ssS'call'
p83
S"(code='# -*- coding: utf-8 -*-\\n# this file is released ...n dict()\\n\\nresponse._vars=response._caller(index)\\n', environment={'A': <class 'gluon.html.A'>, 'ANY_OF': <class 'gluon.validators.ANY_OF'>, 'ASSIGNJS': <function ASSIGNJS>, 'AppConfig': <function AppConfig>, 'Auth': <class 'gluon.tools.Auth'>, 'B': <class 'gluon.html.B'>, 'BEAUTIFY': <class 'gluon.html.BEAUTIFY'>, 'BODY': <class 'gluon.html.BODY'>, 'BR': <class 'gluon.html.BR'>, 'BUTTON': <class 'gluon.html.BUTTON'>, ...}, layer='/home/francisco/web2py/applications/Sistemas2/controllers/default.py')"
p84
sS'func'
p85
S'restricted'
p86
sa(dp87
g62
S'/home/francisco/web2py/applications/Sistemas2/controllers/default.py'
p88
sg64
(dp89
S'get_ldap_data'
p90
S'undefined'
p91
sS'usbutils'
p92
g91
sS'random_key'
p93
g91
ssg70
I12
sg71
(dp94
I7
S'# - user is required for authentication and authorization'
p95
sI8
S'# - download is for downloading files uploaded in the db (does streaming)'
p96
sI9
S'# -------------------------------------------------------------------------'
p97
sI10
S'import os'
p98
sI11
S'import re'
p99
sI12
S'from usbutils import get_ldap_data, random_key'
p100
sI13
S'import urllib2'
p101
sI14
S'### required - do no delete'
p102
sI15
S'def user(): return dict(form=auth())'
p103
sI16
S'def download(): return response.download(request,db)'
p104
ssg83
S'()'
p105
sg85
S'<module>'
p106
sa(dp107
g62
S'/home/francisco/web2py/gluon/custom_import.py'
p108
sg64
(dp109
S'fromlist'
p110
S"('get_ldap_data', 'random_key')"
p111
sS'level'
p112
S'-1'
p113
sS'base_importer'
p114
S'<built-in function __import__>'
p115
sS'globals'
p116
S"{'A': <class 'gluon.html.A'>, 'ANY_OF': <class 'gluon.validators.ANY_OF'>, 'ASSIGNJS': <function ASSIGNJS>, 'AppConfig': <function AppConfig>, 'Auth': <class 'gluon.tools.Auth'>, 'B': <class 'gluon.html.B'>, 'BEAUTIFY': <class 'gluon.html.BEAUTIFY'>, 'BODY': <class 'gluon.html.BODY'>, 'BR': <class 'gluon.html.BR'>, 'BUTTON': <class 'gluon.html.BUTTON'>, ...}"
p117
sS'pname'
p118
S"'applications.Sistemas2.modules.usbutils'"
p119
sS'locals'
p120
S"{'A': <class 'gluon.html.A'>, 'ANY_OF': <class 'gluon.validators.ANY_OF'>, 'ASSIGNJS': <function ASSIGNJS>, 'AppConfig': <function AppConfig>, 'Auth': <class 'gluon.tools.Auth'>, 'B': <class 'gluon.html.B'>, 'BEAUTIFY': <class 'gluon.html.BEAUTIFY'>, 'BODY': <class 'gluon.html.BODY'>, 'BR': <class 'gluon.html.BR'>, 'BUTTON': <class 'gluon.html.BUTTON'>, ...}"
p121
ssg70
I95
sg71
(dp122
I96
S'        except ImportError, e1:'
p123
sI97
S'            import_tb = sys.exc_info()[2]'
p124
sI98
S'            try:'
p125
sI99
S'                return NATIVE_IMPORTER(name, globals, locals, fromlist, level)'
p126
sI90
S'                        modules_prefix += "." + itemname'
p127
sI91
S'                    return result'
p128
sI92
S'                else:'
p129
sI93
S'                    # import like "from x import a, b, ..."'
p130
sI94
S'                    pname = modules_prefix + "." + name'
p131
sI95
S'                    return base_importer(pname, globals, locals, fromlist, level)'
p132
ssg83
S"(name='usbutils', globals={'A': <class 'gluon.html.A'>, 'ANY_OF': <class 'gluon.validators.ANY_OF'>, 'ASSIGNJS': <function ASSIGNJS>, 'AppConfig': <function AppConfig>, 'Auth': <class 'gluon.tools.Auth'>, 'B': <class 'gluon.html.B'>, 'BEAUTIFY': <class 'gluon.html.BEAUTIFY'>, 'BODY': <class 'gluon.html.BODY'>, 'BR': <class 'gluon.html.BR'>, 'BUTTON': <class 'gluon.html.BUTTON'>, ...}, locals={'A': <class 'gluon.html.A'>, 'ANY_OF': <class 'gluon.validators.ANY_OF'>, 'ASSIGNJS': <function ASSIGNJS>, 'AppConfig': <function AppConfig>, 'Auth': <class 'gluon.tools.Auth'>, 'B': <class 'gluon.html.B'>, 'BEAUTIFY': <class 'gluon.html.BEAUTIFY'>, 'BODY': <class 'gluon.html.BODY'>, 'BR': <class 'gluon.html.BR'>, 'BUTTON': <class 'gluon.html.BUTTON'>, ...}, fromlist=('get_ldap_data', 'random_key'), level=-1)"
p133
sg85
S'custom_importer'
p134
sa(dp135
g62
S'/home/francisco/web2py/applications/Sistemas2/modules/usbutils.py'
p136
sg64
(dp137
S'ldap'
p138
g91
ssg70
I2
sg71
(dp139
I2
S'import ldap'
p140
sI3
S'import string'
p141
sI4
S'import random'
p142
sI5
S''
sI6
S'# Requiere:'
p143
sI7
S'# sudo apt-get install libsasl2-dev python-dev libldap2-dev libssl-dev ldap-utils'
p144
sI8
S'# pip install ldap'
p145
sI9
S''
sI10
S'def get_ldap_data(usbid):'
p146
sI11
S'    def getFirst(maybeList):'
p147
ssg83
S'()'
p148
sg85
g106
sa(dp149
g62
S'/home/francisco/web2py/gluon/custom_import.py'
p150
sg64
(dp151
S'builtinstr'
p152
S"<type 'str'>"
p153
sS'builtinImportError'
p154
S"<type 'exceptions.ImportError'>"
p155
sS'e'
S"KeyError('applications.Sistemas2.modules.ldap',)"
p156
ssg70
I89
sg71
(dp157
I84
S'                        new_mod = base_importer('
p158
sI85
S'                            modules_prefix, globals, locals, [itemname], level)'
p159
sI86
S'                        try:'
p160
sI87
S"                            result = result or sys.modules[modules_prefix+'.'+itemname]"
p161
sI88
S'                        except KeyError, e:'
p162
sI89
S"                            raise ImportError, 'Cannot import module %s' % str(e)"
p163
sI90
S'                        modules_prefix += "." + itemname'
p164
sI91
S'                    return result'
p165
sI92
S'                else:'
p166
sI93
S'                    # import like "from x import a, b, ..."'
p167
ssg83
S"(name='ldap', globals={'__builtins__': {'ArithmeticError': <type 'exceptions.ArithmeticError'>, 'AssertionError': <type 'exceptions.AssertionError'>, 'AttributeError': <type 'exceptions.AttributeError'>, 'BaseException': <type 'exceptions.BaseException'>, 'BufferError': <type 'exceptions.BufferError'>, 'BytesWarning': <type 'exceptions.BytesWarning'>, 'DeprecationWarning': <type 'exceptions.DeprecationWarning'>, 'EOFError': <type 'exceptions.EOFError'>, 'Ellipsis': Ellipsis, 'EnvironmentError': <type 'exceptions.EnvironmentError'>, ...}, '__doc__': None, '__file__': None, '__name__': None, '__package__': None}, locals={'__builtins__': {'ArithmeticError': <type 'exceptions.ArithmeticError'>, 'AssertionError': <type 'exceptions.AssertionError'>, 'AttributeError': <type 'exceptions.AttributeError'>, 'BaseException': <type 'exceptions.BaseException'>, 'BufferError': <type 'exceptions.BufferError'>, 'BytesWarning': <type 'exceptions.BytesWarning'>, 'DeprecationWarning': <type 'exceptions.DeprecationWarning'>, 'EOFError': <type 'exceptions.EOFError'>, 'Ellipsis': Ellipsis, 'EnvironmentError': <type 'exceptions.EnvironmentError'>, ...}, '__doc__': None, '__file__': None, '__name__': None, '__package__': None}, fromlist=[], level=-1)"
p168
sg85
g134
sasS'pyver'
p169
S'Python 2.7.12: /usr/bin/python (prefix: /usr)'
p170
sS'session'
p171
g57
(S's\x1a\x00\x00\x00<div><table></table></div>'
tRp172
sS'etype'
p173
S"<type 'exceptions.ImportError'>"
p174
sS'date'
p175
S'Wed Sep 28 21:02:45 2016'
p176
sS'response'
p177
g57
(S'sE>\x00\x00<div><table><tr><td style="font-weight:bold;vertical-align:top;">body</td><td style="vertical-align:top;">:</td><td><div>&lt;cStringIO.StringO object at 0x7fdb182950a0&gt;</div></td></tr><tr><td style="font-weight:bold;vertical-align:top;">cookies</td><td style="vertical-align:top;">:</td><td><div><table><tr><td style="font-weight:bold;vertical-align:top;">session_id_sistemas2</td><td style="vertical-align:top;">:</td><td><div>127.0.0.1-48da0e5a-fcc4-4c73-b590-ed9c337a48bc<table><tr><td style="font-weight:bold;vertical-align:top;">comment</td><td style="vertical-align:top;">:</td><td><div></div></td></tr><tr><td style="font-weight:bold;vertical-align:top;">domain</td><td style="vertical-align:top;">:</td><td><div></div></td></tr><tr><td style="font-weight:bold;vertical-align:top;">expires</td><td style="vertical-align:top;">:</td><td><div></div></td></tr><tr><td style="font-weight:bold;vertical-align:top;">httponly</td><td style="vertical-align:top;">:</td><td><div></div></td></tr><tr><td style="font-weight:bold;vertical-align:top;">max-age</td><td style="vertical-align:top;">:</td><td><div></div></td></tr><tr><td style="font-weight:bold;vertical-align:top;">path</td><td style="vertical-align:top;">:</td><td><div>/</div></td></tr><tr><td style="font-weight:bold;vertical-align:top;">secure</td><td style="vertical-align:top;">:</td><td><div></div></td></tr><tr><td style="font-weight:bold;vertical-align:top;">version</td><td style="vertical-align:top;">:</td><td><div></div></td></tr></table></div></td></tr></table></div></td></tr><tr><td style="font-weight:bold;vertical-align:top;">delimiters</td><td style="vertical-align:top;">:</td><td><div><table><tr><td><div>{{</div></td></tr><tr><td><div>}}</div></td></tr></table></div></td></tr><tr><td style="font-weight:bold;vertical-align:top;">files</td><td style="vertical-align:top;">:</td><td><div><table></table></div></td></tr><tr><td style="font-weight:bold;vertical-align:top;">flash</td><td style="vertical-align:top;">:</td><td><div></div></td></tr><tr><td style="font-weight:bold;vertical-align:top;">form_label_separator</td><td style="vertical-align:top;">:</td><td><div></div></td></tr><tr><td style="font-weight:bold;vertical-align:top;">formstyle</td><td style="vertical-align:top;">:</td><td><div>bootstrap3_inline</div></td></tr><tr><td style="font-weight:bold;vertical-align:top;">generic_patterns</td><td style="vertical-align:top;">:</td><td><div><table><tr><td><div>*</div></td></tr></table></div></td></tr><tr><td style="font-weight:bold;vertical-align:top;">google_analytics_id</td><td style="vertical-align:top;">:</td><td><div>None</div></td></tr><tr><td style="font-weight:bold;vertical-align:top;">headers</td><td style="vertical-align:top;">:</td><td><div><table><tr><td style="font-weight:bold;vertical-align:top;">X-Powered-By</td><td style="vertical-align:top;">:</td><td><div>web2py</div></td></tr></table></div></td></tr><tr><td style="font-weight:bold;vertical-align:top;">logo</td><td style="vertical-align:top;">:</td><td><div><a class="navbar-brand" href="http://www.web2py.com/" id="web2py-logo"><b>web<span>2</span>py</b>&trade;&nbsp;</a></div></td></tr><tr><td style="font-weight:bold;vertical-align:top;">menu</td><td style="vertical-align:top;">:</td><td><div><table><tr><td><div><table><tr><td><div>Home</div></td></tr><tr><td><div>False</div></td></tr><tr><td><div>/Sistemas2/default/index</div></td></tr><tr><td><div><table></table></div></td></tr></table></div></td></tr><tr><td><div><table><tr><td><div>My Sites</div></td></tr><tr><td><div>False</div></td></tr><tr><td><div>/admin/default/site</div></td></tr></table></div></td></tr><tr><td><div><table><tr><td><div>This App</div></td></tr><tr><td><div>False</div></td></tr><tr><td><div>#</div></td></tr><tr><td><div><table><tr><td><div><table><tr><td><div>Design</div></td></tr><tr><td><div>False</div></td></tr><tr><td><div>/admin/default/design/Sistemas2</div></td></tr></table></div></td></tr><tr><td><div><li class="divider"></li></div></td></tr><tr><td><div><table><tr><td><div>Controller</div></td></tr><tr><td><div>False</div></td></tr><tr><td><div>/admin/default/edit/Sistemas2/controllers/default.py</div></td></tr></table></div></td></tr><tr><td><div><table><tr><td><div>View</div></td></tr><tr><td><div>False</div></td></tr><tr><td><div>/admin/default/edit/Sistemas2/views/default/index.html</div></td></tr></table></div></td></tr><tr><td><div><table><tr><td><div>DB Model</div></td></tr><tr><td><div>False</div></td></tr><tr><td><div>/admin/default/edit/Sistemas2/models/db.py</div></td></tr></table></div></td></tr><tr><td><div><table><tr><td><div>Menu Model</div></td></tr><tr><td><div>False</div></td></tr><tr><td><div>/admin/default/edit/Sistemas2/models/menu.py</div></td></tr></table></div></td></tr><tr><td><div><table><tr><td><div>Config.ini</div></td></tr><tr><td><div>False</div></td></tr><tr><td><div>/admin/default/edit/Sistemas2/private/appconfig.ini</div></td></tr></table></div></td></tr><tr><td><div><table><tr><td><div>Layout</div></td></tr><tr><td><div>False</div></td></tr><tr><td><div>/admin/default/edit/Sistemas2/views/layout.html</div></td></tr></table></div></td></tr><tr><td><div><table><tr><td><div>Stylesheet</div></td></tr><tr><td><div>False</div></td></tr><tr><td><div>/admin/default/edit/Sistemas2/static/css/web2py-bootstrap3.css</div></td></tr></table></div></td></tr><tr><td><div><table><tr><td><div>Database</div></td></tr><tr><td><div>False</div></td></tr><tr><td><div>/Sistemas2/appadmin/index</div></td></tr></table></div></td></tr><tr><td><div><table><tr><td><div>Errors</div></td></tr><tr><td><div>False</div></td></tr><tr><td><div>/admin/default/errors/Sistemas2</div></td></tr></table></div></td></tr><tr><td><div><table><tr><td><div>About</div></td></tr><tr><td><div>False</div></td></tr><tr><td><div>/admin/default/about/Sistemas2</div></td></tr></table></div></td></tr></table></div></td></tr></table></div></td></tr><tr><td><div><table><tr><td><div>web2py.com</div></td></tr><tr><td><div>False</div></td></tr><tr><td><div>#</div></td></tr><tr><td><div><table><tr><td><div><table><tr><td><div>Download</div></td></tr><tr><td><div>False</div></td></tr><tr><td><div>http://www.web2py.com/examples/default/download</div></td></tr></table></div></td></tr><tr><td><div><table><tr><td><div>Support</div></td></tr><tr><td><div>False</div></td></tr><tr><td><div>http://www.web2py.com/examples/default/support</div></td></tr></table></div></td></tr><tr><td><div><table><tr><td><div>Demo</div></td></tr><tr><td><div>False</div></td></tr><tr><td><div>http://web2py.com/demo_admin</div></td></tr></table></div></td></tr><tr><td><div><table><tr><td><div>Quick Examples</div></td></tr><tr><td><div>False</div></td></tr><tr><td><div>http://web2py.com/examples/default/examples</div></td></tr></table></div></td></tr><tr><td><div><table><tr><td><div>FAQ</div></td></tr><tr><td><div>False</div></td></tr><tr><td><div>http://web2py.com/AlterEgo</div></td></tr></table></div></td></tr><tr><td><div><table><tr><td><div>Videos</div></td></tr><tr><td><div>False</div></td></tr><tr><td><div>http://www.web2py.com/examples/default/videos/</div></td></tr></table></div></td></tr><tr><td><div><table><tr><td><div>Free Applications</div></td></tr><tr><td><div>False</div></td></tr><tr><td><div>http://web2py.com/appliances</div></td></tr></table></div></td></tr><tr><td><div><table><tr><td><div>Plugins</div></td></tr><tr><td><div>False</div></td></tr><tr><td><div>http://web2py.com/plugins</div></td></tr></table></div></td></tr><tr><td><div><table><tr><td><div>Recipes</div></td></tr><tr><td><div>False</div></td></tr><tr><td><div>http://web2pyslices.com/</div></td></tr></table></div></td></tr></table></div></td></tr></table></div></td></tr><tr><td><div><table><tr><td><div>Documentation</div></td></tr><tr><td><div>False</div></td></tr><tr><td><div>#</div></td></tr><tr><td><div><table><tr><td><div><table><tr><td><div>Online book</div></td></tr><tr><td><div>False</div></td></tr><tr><td><div>http://www.web2py.com/book</div></td></tr></table></div></td></tr><tr><td><div><li class="divider"></li></div></td></tr><tr><td><div><table><tr><td><div>Preface</div></td></tr><tr><td><div>False</div></td></tr><tr><td><div>http://www.web2py.com/book/default/chapter/00</div></td></tr></table></div></td></tr><tr><td><div><table><tr><td><div>Introduction</div></td></tr><tr><td><div>False</div></td></tr><tr><td><div>http://www.web2py.com/book/default/chapter/01</div></td></tr></table></div></td></tr><tr><td><div><table><tr><td><div>Python</div></td></tr><tr><td><div>False</div></td></tr><tr><td><div>http://www.web2py.com/book/default/chapter/02</div></td></tr></table></div></td></tr><tr><td><div><table><tr><td><div>Overview</div></td></tr><tr><td><div>False</div></td></tr><tr><td><div>http://www.web2py.com/book/default/chapter/03</div></td></tr></table></div></td></tr><tr><td><div><table><tr><td><div>The Core</div></td></tr><tr><td><div>False</div></td></tr><tr><td><div>http://www.web2py.com/book/default/chapter/04</div></td></tr></table></div></td></tr><tr><td><div><table><tr><td><div>The Views</div></td></tr><tr><td><div>False</div></td></tr><tr><td><div>http://www.web2py.com/book/default/chapter/05</div></td></tr></table></div></td></tr><tr><td><div><table><tr><td><div>Database</div></td></tr><tr><td><div>False</div></td></tr><tr><td><div>http://www.web2py.com/book/default/chapter/06</div></td></tr></table></div></td></tr><tr><td><div><table><tr><td><div>Forms and Validators</div></td></tr><tr><td><div>False</div></td></tr><tr><td><div>http://www.web2py.com/book/default/chapter/07</div></td></tr></table></div></td></tr><tr><td><div><table><tr><td><div>Email and SMS</div></td></tr><tr><td><div>False</div></td></tr><tr><td><div>http://www.web2py.com/book/default/chapter/08</div></td></tr></table></div></td></tr><tr><td><div><table><tr><td><div>Access Control</div></td></tr><tr><td><div>False</div></td></tr><tr><td><div>http://www.web2py.com/book/default/chapter/09</div></td></tr></table></div></td></tr><tr><td><div><table><tr><td><div>Services</div></td></tr><tr><td><div>False</div></td></tr><tr><td><div>http://www.web2py.com/book/default/chapter/10</div></td></tr></table></div></td></tr><tr><td><div><table><tr><td><div>Ajax Recipes</div></td></tr><tr><td><div>False</div></td></tr><tr><td><div>http://www.web2py.com/book/default/chapter/11</div></td></tr></table></div></td></tr><tr><td><div><table><tr><td><div>Components and Plugins</div></td></tr><tr><td><div>False</div></td></tr><tr><td><div>http://www.web2py.com/book/default/chapter/12</div></td></tr></table></div></td></tr><tr><td><div><table><tr><td><div>Deployment Recipes</div></td></tr><tr><td><div>False</div></td></tr><tr><td><div>http://www.web2py.com/book/default/chapter/13</div></td></tr></table></div></td></tr><tr><td><div><table><tr><td><div>Other Recipes</div></td></tr><tr><td><div>False</div></td></tr><tr><td><div>http://www.web2py.com/book/default/chapter/14</div></td></tr></table></div></td></tr><tr><td><div><table><tr><td><div>Helping web2py</div></td></tr><tr><td><div>False</div></td></tr><tr><td><div>http://www.web2py.com/book/default/chapter/15</div></td></tr></table></div></td></tr><tr><td><div><table><tr><td><div>Buy web2py\'s book</div></td></tr><tr><td><div>False</div></td></tr><tr><td><div>http://stores.lulu.com/web2py</div></td></tr></table></div></td></tr></table></div></td></tr></table></div></td></tr><tr><td><div><table><tr><td><div>Community</div></td></tr><tr><td><div>False</div></td></tr><tr><td><div>None</div></td></tr><tr><td><div><table><tr><td><div><table><tr><td><div>Groups</div></td></tr><tr><td><div>False</div></td></tr><tr><td><div>http://www.web2py.com/examples/default/usergroups</div></td></tr></table></div></td></tr><tr><td><div><table><tr><td><div>Twitter</div></td></tr><tr><td><div>False</div></td></tr><tr><td><div>http://twitter.com/web2py</div></td></tr></table></div></td></tr><tr><td><div><table><tr><td><div>Live Chat</div></td></tr><tr><td><div>False</div></td></tr><tr><td><div>http://webchat.freenode.net/?channels=web2py</div></td></tr></table></div></td></tr></table></div></td></tr></table></div></td></tr></table></div></td></tr><tr><td style="font-weight:bold;vertical-align:top;">meta</td><td style="vertical-align:top;">:</td><td><div><table><tr><td style="font-weight:bold;vertical-align:top;">author</td><td style="vertical-align:top;">:</td><td><div>Your Name &lt;you@example.com&gt;</div></td></tr><tr><td style="font-weight:bold;vertical-align:top;">description</td><td style="vertical-align:top;">:</td><td><div>a cool new app</div></td></tr><tr><td style="font-weight:bold;vertical-align:top;">generator</td><td style="vertical-align:top;">:</td><td><div>Web2py Web Framework</div></td></tr><tr><td style="font-weight:bold;vertical-align:top;">keywords</td><td style="vertical-align:top;">:</td><td><div><table><tr><td><div>web2py</div></td></tr><tr><td><div>python</div></td></tr><tr><td><div>framework</div></td></tr></table></div></td></tr></table></div></td></tr><tr><td style="font-weight:bold;vertical-align:top;">models_to_run</td><td style="vertical-align:top;">:</td><td><div><table><tr><td><div>^\\w+\\.py$</div></td></tr><tr><td><div>^default/\\w+\\.py$</div></td></tr><tr><td><div>^default/index/\\w+\\.py$</div></td></tr></table></div></td></tr><tr><td style="font-weight:bold;vertical-align:top;">postprocessing</td><td style="vertical-align:top;">:</td><td><div><table></table></div></td></tr><tr><td style="font-weight:bold;vertical-align:top;">session_client</td><td style="vertical-align:top;">:</td><td><div>127.0.0.1</div></td></tr><tr><td style="font-weight:bold;vertical-align:top;">session_cookie_compression_level</td><td style="vertical-align:top;">:</td><td><div>None</div></td></tr><tr><td style="font-weight:bold;vertical-align:top;">session_cookie_expires</td><td style="vertical-align:top;">:</td><td><div>None</div></td></tr><tr><td style="font-weight:bold;vertical-align:top;">session_data_name</td><td style="vertical-align:top;">:</td><td><div>session_data_sistemas2</div></td></tr><tr><td style="font-weight:bold;vertical-align:top;">session_file</td><td style="vertical-align:top;">:</td><td><div>None</div></td></tr><tr><td style="font-weight:bold;vertical-align:top;">session_filename</td><td style="vertical-align:top;">:</td><td><div>/home/francisco/web2py/applications/Sistemas2/sessions/127.0.0.1-48da0e5a-fcc4-4c73-b590-ed9c337a48bc</div></td></tr><tr><td style="font-weight:bold;vertical-align:top;">session_hash</td><td style="vertical-align:top;">:</td><td><div>c0762cbf4baf7f9af97c051e7fcb8083</div></td></tr><tr><td style="font-weight:bold;vertical-align:top;">session_id</td><td style="vertical-align:top;">:</td><td><div>127.0.0.1-48da0e5a-fcc4-4c73-b590-ed9c337a48bc</div></td></tr><tr><td style="font-weight:bold;vertical-align:top;">session_id_name</td><td style="vertical-align:top;">:</td><td><div>session_id_sistemas2</div></td></tr><tr><td style="font-weight:bold;vertical-align:top;">session_masterapp</td><td style="vertical-align:top;">:</td><td><div>Sistemas2</div></td></tr><tr><td style="font-weight:bold;vertical-align:top;">session_new</td><td style="vertical-align:top;">:</td><td><div>True</div></td></tr><tr><td style="font-weight:bold;vertical-align:top;">session_storage_type</td><td style="vertical-align:top;">:</td><td><div>file</div></td></tr><tr><td style="font-weight:bold;vertical-align:top;">status</td><td style="vertical-align:top;">:</td><td><div>200</div></td></tr><tr><td style="font-weight:bold;vertical-align:top;">subtitle</td><td style="vertical-align:top;">:</td><td><div></div></td></tr><tr><td style="font-weight:bold;vertical-align:top;">title</td><td style="vertical-align:top;">:</td><td><div>Sistemas2</div></td></tr><tr><td style="font-weight:bold;vertical-align:top;">view</td><td style="vertical-align:top;">:</td><td><div>default/index.html</div></td></tr></table></div>'
tRp178
sS'locals'
p179
(dp180
S'fromlist'
p181
S'[]'
p182
sS'e'
S"KeyError('applications.Sistemas2.modules.ldap',)"
p183
sS'name'
p184
S"'ldap'"
p185
sS'level'
p186
S'-1'
p187
sS'itemname'
p188
S"'ldap'"
p189
sS'e3'
p190
S"ImportError('No module named ldap',)"
p191
sS'base_importer'
p192
S'<built-in function __import__>'
p193
sS'globals'
p194
S"{'__builtins__': {'ArithmeticError': <type 'exceptions.ArithmeticError'>, 'AssertionError': <type 'exceptions.AssertionError'>, 'AttributeError': <type 'exceptions.AttributeError'>, 'BaseException': <type 'exceptions.BaseException'>, 'BufferError': <type 'exceptions.BufferError'>, 'BytesWarning': <type 'exceptions.BytesWarning'>, 'DeprecationWarning': <type 'exceptions.DeprecationWarning'>, 'EOFError': <type 'exceptions.EOFError'>, 'Ellipsis': Ellipsis, 'EnvironmentError': <type 'exceptions.EnvironmentError'>, ...}, '__doc__': None, '__file__': None, '__name__': None, '__package__': None}"
p195
sS'result'
p196
S'None'
p197
sS'items'
p198
S"['', 'home', 'francisco', 'web2py', 'applications', 'Sistemas2']"
p199
sS'modules_prefix'
p200
S"'applications.Sistemas2.modules'"
p201
sS'new_mod'
p202
S"<module 'applications.Sistemas2.modules' from 'applications/Sistemas2/modules/__init__.py'>"
p203
sS'e1'
p204
S'ImportError("Cannot import module \'applications.Sistemas2.modules.ldap\'",)'
p205
sS'import_tb'
p206
S'None'
p207
sg179
S"{'__builtins__': {'ArithmeticError': <type 'exceptions.ArithmeticError'>, 'AssertionError': <type 'exceptions.AssertionError'>, 'AttributeError': <type 'exceptions.AttributeError'>, 'BaseException': <type 'exceptions.BaseException'>, 'BufferError': <type 'exceptions.BufferError'>, 'BytesWarning': <type 'exceptions.BytesWarning'>, 'DeprecationWarning': <type 'exceptions.DeprecationWarning'>, 'EOFError': <type 'exceptions.EOFError'>, 'Ellipsis': Ellipsis, 'EnvironmentError': <type 'exceptions.EnvironmentError'>, ...}, '__doc__': None, '__file__': None, '__name__': None, '__package__': None}"
p208
sS'oname'
p209
S"'ldap'"
p210
sssS'traceback'
p211
S'Traceback (most recent call last):\n  File "/home/francisco/web2py/gluon/restricted.py", line 227, in restricted\n    exec ccode in environment\n  File "/home/francisco/web2py/applications/Sistemas2/controllers/default.py", line 12, in <module>\n    from usbutils import get_ldap_data, random_key\n  File "/home/francisco/web2py/gluon/custom_import.py", line 95, in custom_importer\n    return base_importer(pname, globals, locals, fromlist, level)\n  File "applications/Sistemas2/modules/usbutils.py", line 2, in <module>\n    import ldap\n  File "/home/francisco/web2py/gluon/custom_import.py", line 89, in custom_importer\n    raise ImportError, \'Cannot import module %s\' % str(e)\nImportError: Cannot import module \'applications.Sistemas2.modules.ldap\'\n'
p212
s.